target datalayout = "e-m:e-p270:32:32-p271:32:32-p272:64:64-i64:64-i128:128-f80:128-n8:16:32:64-S128"
target triple = "x86_64-pc-linux-gnu"

%"class.VrmlTranslator::Buffer" = type <{ ptr, ptr, i32, i32, i32, i32, i32, [4 x i8], ptr, i8, [7 x i8] }>

@.str = private unnamed_addr constant [42 x i8] c"Buffer out of bounds access, position: %d\00", align 1
@_ZTIPc = external constant ptr

; Function Attrs: mustprogress uwtable
define noundef i32 @_ZN14VrmlTranslator6Buffer19ReadNextStreamChunkEv(ptr noundef nonnull align 8 dereferenceable(49) %0) #1 align 2 {
  %2 = alloca i32, align 4
  %3 = alloca ptr, align 8
  %4 = alloca i32, align 4
  %5 = alloca ptr, align 8
  %6 = alloca i32, align 4
  store ptr %0, ptr %3, align 8
  %7 = load ptr, ptr %3, align 8
  %8 = getelementptr inbounds %"class.VrmlTranslator::Buffer", ptr %7, i32 0, i32 2
  %9 = load i32, ptr %8, align 8
  %10 = getelementptr inbounds %"class.VrmlTranslator::Buffer", ptr %7, i32 0, i32 4
  %11 = load i32, ptr %10, align 8
  %12 = sub nsw i32 %9, %11
  store i32 %12, ptr %4, align 4
  %13 = load i32, ptr %4, align 4
  %14 = icmp eq i32 %13, 0
  br i1 %14, label %15, label %40

15:                                               ; preds = %1
  %16 = getelementptr inbounds %"class.VrmlTranslator::Buffer", ptr %7, i32 0, i32 4
  %17 = load i32, ptr %16, align 8
  %18 = mul nsw i32 %17, 2
  %19 = getelementptr inbounds %"class.VrmlTranslator::Buffer", ptr %7, i32 0, i32 2
  store i32 %18, ptr %19, align 8
  %20 = getelementptr inbounds %"class.VrmlTranslator::Buffer", ptr %7, i32 0, i32 2
  %21 = load i32, ptr %20, align 8
  %22 = sext i32 %21 to i64
  %23 = call noalias noundef nonnull ptr @_Znam(i64 noundef %22) #14
  store ptr %23, ptr %5, align 8
  %24 = load ptr, ptr %5, align 8
  %25 = getelementptr inbounds %"class.VrmlTranslator::Buffer", ptr %7, i32 0, i32 1
  %26 = load ptr, ptr %25, align 8
  %27 = getelementptr inbounds %"class.VrmlTranslator::Buffer", ptr %7, i32 0, i32 4
  %28 = load i32, ptr %27, align 8
  %29 = sext i32 %28 to i64
  %30 = mul i64 %29, 1
  call void @llvm.memcpy.p0.p0.i64(ptr align 1 %24, ptr align 1 %26, i64 %30, i1 false)
  %31 = getelementptr inbounds %"class.VrmlTranslator::Buffer", ptr %7, i32 0, i32 1
  %32 = load ptr, ptr %31, align 8
  %33 = icmp eq ptr %32, null
  br i1 %33, label %35, label %34

34:                                               ; preds = %15
  call void @_ZdaPv(ptr noundef %32) #13
  br label %35

35:                                               ; preds = %34, %15
  %36 = load ptr, ptr %5, align 8
  %37 = getelementptr inbounds %"class.VrmlTranslator::Buffer", ptr %7, i32 0, i32 1
  store ptr %36, ptr %37, align 8
  %38 = getelementptr inbounds %"class.VrmlTranslator::Buffer", ptr %7, i32 0, i32 4
  %39 = load i32, ptr %38, align 8
  store i32 %39, ptr %4, align 4
  br label %40

40:                                               ; preds = %35, %1
  %41 = getelementptr inbounds %"class.VrmlTranslator::Buffer", ptr %7, i32 0, i32 1
  %42 = load ptr, ptr %41, align 8
  %43 = getelementptr inbounds %"class.VrmlTranslator::Buffer", ptr %7, i32 0, i32 4
  %44 = load i32, ptr %43, align 8
  %45 = sext i32 %44 to i64
  %46 = getelementptr inbounds i8, ptr %42, i64 %45
  %47 = load i32, ptr %4, align 4
  %48 = sext i32 %47 to i64
  %49 = getelementptr inbounds %"class.VrmlTranslator::Buffer", ptr %7, i32 0, i32 8
  %50 = load ptr, ptr %49, align 8
  %51 = call i64 @fread(ptr noundef %46, i64 noundef 1, i64 noundef %48, ptr noundef %50)
  %52 = trunc i64 %51 to i32
  store i32 %52, ptr %6, align 4
  %53 = load i32, ptr %6, align 4
  %54 = icmp sgt i32 %53, 0
  br i1 %54, label %55, label %63

55:                                               ; preds = %40
  %56 = getelementptr inbounds %"class.VrmlTranslator::Buffer", ptr %7, i32 0, i32 4
  %57 = load i32, ptr %56, align 8
  %58 = load i32, ptr %6, align 4
  %59 = add nsw i32 %57, %58
  %60 = getelementptr inbounds %"class.VrmlTranslator::Buffer", ptr %7, i32 0, i32 4
  store i32 %59, ptr %60, align 8
  %61 = getelementptr inbounds %"class.VrmlTranslator::Buffer", ptr %7, i32 0, i32 5
  store i32 %59, ptr %61, align 4
  %62 = load i32, ptr %6, align 4
  store i32 %62, ptr %2, align 4
  br label %64

63:                                               ; preds = %40
  store i32 0, ptr %2, align 4
  br label %64

64:                                               ; preds = %63, %55
  %65 = load i32, ptr %2, align 4
  ret i32 %65
}

; Function Attrs: mustprogress uwtable
define noundef zeroext i1 @_ZN14VrmlTranslator6Buffer7CanSeekEv(ptr noundef nonnull align 8 dereferenceable(49) %0) #1 align 2 {
  %2 = alloca ptr, align 8
  store ptr %0, ptr %2, align 8
  %3 = load ptr, ptr %2, align 8
  %4 = getelementptr inbounds %"class.VrmlTranslator::Buffer", ptr %3, i32 0, i32 8
  %5 = load ptr, ptr %4, align 8
  %6 = icmp ne ptr %5, null
  br i1 %6, label %7, label %12

7:                                                ; preds = %1
  %8 = getelementptr inbounds %"class.VrmlTranslator::Buffer", ptr %3, i32 0, i32 8
  %9 = load ptr, ptr %8, align 8
  %10 = call i64 @ftell(ptr noundef %9)
  %11 = icmp ne i64 %10, -1
  br label %12

12:                                               ; preds = %7, %1
  %13 = phi i1 [ false, %1 ], [ %11, %7 ]
  ret i1 %13
}

; Function Attrs: mustprogress uwtable
define void @_ZN14VrmlTranslator6Buffer6SetPosEi(ptr noundef nonnull align 8 dereferenceable(49) %0, i32 noundef %1) unnamed_addr #1 align 2 {
  %3 = alloca ptr, align 8
  %4 = alloca i32, align 4
  %5 = alloca [50 x i8], align 16
  store ptr %0, ptr %3, align 8
  store i32 %1, ptr %4, align 4
  %6 = load ptr, ptr %3, align 8
  %7 = load i32, ptr %4, align 4
  %8 = getelementptr inbounds %"class.VrmlTranslator::Buffer", ptr %6, i32 0, i32 5
  %9 = load i32, ptr %8, align 4
  %10 = icmp sge i32 %7, %9
  br i1 %10, label %11, label %30

11:                                               ; preds = %2
  %12 = getelementptr inbounds %"class.VrmlTranslator::Buffer", ptr %6, i32 0, i32 8
  %13 = load ptr, ptr %12, align 8
  %14 = icmp ne ptr %13, null
  br i1 %14, label %15, label %30

15:                                               ; preds = %11
  %16 = call noundef zeroext i1 @_ZN14VrmlTranslator6Buffer7CanSeekEv(ptr noundef nonnull align 8 dereferenceable(49) %6)
  br i1 %16, label %30, label %17

17:                                               ; preds = %15
  br label %18

18:                                               ; preds = %28, %17
  %19 = load i32, ptr %4, align 4
  %20 = getelementptr inbounds %"class.VrmlTranslator::Buffer", ptr %6, i32 0, i32 5
  %21 = load i32, ptr %20, align 4
  %22 = icmp sge i32 %19, %21
  br i1 %22, label %23, label %26

23:                                               ; preds = %18
  %24 = call noundef i32 @_ZN14VrmlTranslator6Buffer19ReadNextStreamChunkEv(ptr noundef nonnull align 8 dereferenceable(49) %6)
  %25 = icmp sgt i32 %24, 0
  br label %26

26:                                               ; preds = %23, %18
  %27 = phi i1 [ false, %18 ], [ %25, %23 ]
  br i1 %27, label %28, label %29

28:                                               ; preds = %26
  br label %18, !llvm.loop !8

29:                                               ; preds = %26
  br label %30

30:                                               ; preds = %29, %15, %11, %2
  %31 = load i32, ptr %4, align 4
  %32 = icmp slt i32 %31, 0
  br i1 %32, label %38, label %33

33:                                               ; preds = %30
  %34 = load i32, ptr %4, align 4
  %35 = getelementptr inbounds %"class.VrmlTranslator::Buffer", ptr %6, i32 0, i32 5
  %36 = load i32, ptr %35, align 4
  %37 = icmp sgt i32 %34, %36
  br i1 %37, label %38, label %44

38:                                               ; preds = %33, %30
  %39 = getelementptr inbounds [50 x i8], ptr %5, i64 0, i64 0
  %40 = load i32, ptr %4, align 4
  %41 = call i32 (ptr, ptr, ...) @sprintf(ptr noundef %39, ptr noundef @.str, i32 noundef %40) #12
  %42 = call ptr @__cxa_allocate_exception(i64 8) #12
  %43 = getelementptr inbounds [50 x i8], ptr %5, i64 0, i64 0
  store ptr %43, ptr %42, align 16
  call void @__cxa_throw(ptr %42, ptr @_ZTIPc, ptr null) #15
  unreachable

44:                                               ; preds = %33
  %45 = load i32, ptr %4, align 4
  %46 = getelementptr inbounds %"class.VrmlTranslator::Buffer", ptr %6, i32 0, i32 3
  %47 = load i32, ptr %46, align 4
  %48 = icmp sge i32 %45, %47
  br i1 %48, label %49, label %63

49:                                               ; preds = %44
  %50 = load i32, ptr %4, align 4
  %51 = getelementptr inbounds %"class.VrmlTranslator::Buffer", ptr %6, i32 0, i32 3
  %52 = load i32, ptr %51, align 4
  %53 = getelementptr inbounds %"class.VrmlTranslator::Buffer", ptr %6, i32 0, i32 4
  %54 = load i32, ptr %53, align 8
  %55 = add nsw i32 %52, %54
  %56 = icmp slt i32 %50, %55
  br i1 %56, label %57, label %63

57:                                               ; preds = %49
  %58 = load i32, ptr %4, align 4
  %59 = getelementptr inbounds %"class.VrmlTranslator::Buffer", ptr %6, i32 0, i32 3
  %60 = load i32, ptr %59, align 4
  %61 = sub nsw i32 %58, %60
  %62 = getelementptr inbounds %"class.VrmlTranslator::Buffer", ptr %6, i32 0, i32 6
  store i32 %61, ptr %62, align 8
  br label %94

63:                                               ; preds = %49, %44
  %64 = getelementptr inbounds %"class.VrmlTranslator::Buffer", ptr %6, i32 0, i32 8
  %65 = load ptr, ptr %64, align 8
  %66 = icmp ne ptr %65, null
  br i1 %66, label %67, label %86

67:                                               ; preds = %63
  %68 = getelementptr inbounds %"class.VrmlTranslator::Buffer", ptr %6, i32 0, i32 8
  %69 = load ptr, ptr %68, align 8
  %70 = load i32, ptr %4, align 4
  %71 = sext i32 %70 to i64
  %72 = call i32 @fseek(ptr noundef %69, i64 noundef %71, i32 noundef 0)
  %73 = getelementptr inbounds %"class.VrmlTranslator::Buffer", ptr %6, i32 0, i32 1
  %74 = load ptr, ptr %73, align 8
  %75 = getelementptr inbounds %"class.VrmlTranslator::Buffer", ptr %6, i32 0, i32 2
  %76 = load i32, ptr %75, align 8
  %77 = sext i32 %76 to i64
  %78 = getelementptr inbounds %"class.VrmlTranslator::Buffer", ptr %6, i32 0, i32 8
  %79 = load ptr, ptr %78, align 8
  %80 = call i64 @fread(ptr noundef %74, i64 noundef 1, i64 noundef %77, ptr noundef %79)
  %81 = trunc i64 %80 to i32
  %82 = getelementptr inbounds %"class.VrmlTranslator::Buffer", ptr %6, i32 0, i32 4
  store i32 %81, ptr %82, align 8
  %83 = load i32, ptr %4, align 4
  %84 = getelementptr inbounds %"class.VrmlTranslator::Buffer", ptr %6, i32 0, i32 3
  store i32 %83, ptr %84, align 4
  %85 = getelementptr inbounds %"class.VrmlTranslator::Buffer", ptr %6, i32 0, i32 6
  store i32 0, ptr %85, align 8
  br label %93

86:                                               ; preds = %63
  %87 = getelementptr inbounds %"class.VrmlTranslator::Buffer", ptr %6, i32 0, i32 5
  %88 = load i32, ptr %87, align 4
  %89 = getelementptr inbounds %"class.VrmlTranslator::Buffer", ptr %6, i32 0, i32 3
  %90 = load i32, ptr %89, align 4
  %91 = sub nsw i32 %88, %90
  %92 = getelementptr inbounds %"class.VrmlTranslator::Buffer", ptr %6, i32 0, i32 6
  store i32 %91, ptr %92, align 8
  br label %93

93:                                               ; preds = %86, %67
  br label %94

94:                                               ; preds = %93, %57
  ret void
}