; Function Attrs: mustprogress uwtable
define void @_ZN14VrmlTranslator6Buffer6SetPosEi(ptr nocapture noundef nonnull align 8 dereferenceable(49) %0, i32 noundef %1) unnamed_addr #2 align 2 {
  %3 = alloca [50 x i8], align 16
  %4 = getelementptr inbounds i8, ptr %0, i64 28
  %5 = load i32, ptr %4, align 4
  %.not = icmp sgt i32 %5, %1
  %6 = getelementptr inbounds i8, ptr %0, i64 40
  %7 = load ptr, ptr %6, align 8
  %.not12 = icmp eq ptr %7, null
  %or.cond = select i1 %.not, i1 true, i1 %.not12
  br i1 %or.cond, label %.critedge, label %_ZN14VrmlTranslator6Buffer7CanSeekEv.exit

_ZN14VrmlTranslator6Buffer7CanSeekEv.exit:        ; preds = %2
  %8 = tail call i64 @ftell(ptr noundef nonnull %7)
  %9 = icmp ne i64 %8, -1
  %10 = load i32, ptr %4, align 4
  %.not13 = icmp sgt i32 %10, %1
  %or.cond22 = select i1 %9, i1 true, i1 %.not13
  br i1 %or.cond22, label %.critedge, label %.preheader

.preheader:                                       ; preds = %_ZN14VrmlTranslator6Buffer7CanSeekEv.exit
  %11 = getelementptr inbounds i8, ptr %0, i64 16
  %12 = getelementptr inbounds i8, ptr %0, i64 24
  %.phi.trans.insert.i = getelementptr inbounds i8, ptr %0, i64 8
  %.pre = load i32, ptr %12, align 8
  br label %13

13:                                               ; preds = %.preheader, %_ZN14VrmlTranslator6Buffer19ReadNextStreamChunkEv.exit
  %14 = phi i32 [ %.pre, %.preheader ], [ %39, %_ZN14VrmlTranslator6Buffer19ReadNextStreamChunkEv.exit ]
  %15 = load i32, ptr %11, align 8
  %16 = sub nsw i32 %15, %14
  %17 = icmp eq i32 %16, 0
  br i1 %17, label %18, label %._crit_edge.i

._crit_edge.i:                                    ; preds = %13
  %.pre12.i = load ptr, ptr %.phi.trans.insert.i, align 8
  br label %28

18:                                               ; preds = %13
  %19 = shl nsw i32 %14, 1
  store i32 %19, ptr %11, align 8
  %20 = sext i32 %19 to i64
  %21 = tail call noalias noundef nonnull ptr @_Znam(i64 noundef %20) #21
  %22 = load ptr, ptr %.phi.trans.insert.i, align 8
  %23 = sext i32 %14 to i64
  tail call void @llvm.memcpy.p0.p0.i64(ptr nonnull align 1 %21, ptr align 1 %22, i64 %23, i1 false)
  %24 = icmp eq ptr %22, null
  br i1 %24, label %26, label %25

25:                                               ; preds = %18
  tail call void @_ZdaPv(ptr noundef nonnull %22) #20
  %.pre.i = load i32, ptr %12, align 8
  br label %26

26:                                               ; preds = %25, %18
  %27 = phi i32 [ %.pre.i, %25 ], [ %14, %18 ]
  store ptr %21, ptr %.phi.trans.insert.i, align 8
  br label %28

28:                                               ; preds = %26, %._crit_edge.i
  %29 = phi i32 [ %27, %26 ], [ %14, %._crit_edge.i ]
  %30 = phi ptr [ %21, %26 ], [ %.pre12.i, %._crit_edge.i ]
  %.08.i = phi i32 [ %27, %26 ], [ %16, %._crit_edge.i ]
  %31 = sext i32 %29 to i64
  %32 = getelementptr inbounds i8, ptr %30, i64 %31
  %33 = sext i32 %.08.i to i64
  %34 = load ptr, ptr %6, align 8
  %35 = tail call i64 @fread(ptr noundef %32, i64 noundef 1, i64 noundef %33, ptr noundef %34)
  %36 = trunc i64 %35 to i32
  %37 = icmp sgt i32 %36, 0
  br i1 %37, label %_ZN14VrmlTranslator6Buffer19ReadNextStreamChunkEv.exit, label %..critedge.loopexit_crit_edge

..critedge.loopexit_crit_edge:                    ; preds = %28
  %.pre23.pre = load i32, ptr %4, align 4
  br label %.critedge

_ZN14VrmlTranslator6Buffer19ReadNextStreamChunkEv.exit: ; preds = %28
  %38 = load i32, ptr %12, align 8
  %39 = add nsw i32 %38, %36
  store i32 %39, ptr %12, align 8
  store i32 %39, ptr %4, align 4
  %.not13.old = icmp sgt i32 %39, %1
  br i1 %.not13.old, label %.critedge, label %13

.critedge:                                        ; preds = %_ZN14VrmlTranslator6Buffer19ReadNextStreamChunkEv.exit, %..critedge.loopexit_crit_edge, %_ZN14VrmlTranslator6Buffer7CanSeekEv.exit, %2
  %40 = phi i32 [ %10, %_ZN14VrmlTranslator6Buffer7CanSeekEv.exit ], [ %5, %2 ], [ %.pre23.pre, %..critedge.loopexit_crit_edge ], [ %39, %_ZN14VrmlTranslator6Buffer19ReadNextStreamChunkEv.exit ]
  %41 = icmp slt i32 %1, 0
  %42 = icmp slt i32 %40, %1
  %or.cond19 = select i1 %41, i1 true, i1 %42
  br i1 %or.cond19, label %43, label %46

43:                                               ; preds = %.critedge
  %44 = call i32 (ptr, ptr, ...) @sprintf(ptr noundef nonnull dereferenceable(1) %3, ptr noundef nonnull dereferenceable(1) @.str, i32 noundef %1) #22
  %45 = tail call ptr @__cxa_allocate_exception(i64 8) #22
  store ptr %3, ptr %45, align 16
  call void @__cxa_throw(ptr nonnull %45, ptr nonnull @_ZTIPc, ptr null) #23
  unreachable

46:                                               ; preds = %.critedge
  %47 = getelementptr inbounds i8, ptr %0, i64 20
  %48 = load i32, ptr %47, align 4
  %.not15 = icmp sgt i32 %48, %1
  br i1 %.not15, label %56, label %49

49:                                               ; preds = %46
  %50 = getelementptr inbounds i8, ptr %0, i64 24
  %51 = load i32, ptr %50, align 8
  %52 = add nsw i32 %51, %48
  %53 = icmp sgt i32 %52, %1
  br i1 %53, label %54, label %56

54:                                               ; preds = %49
  %55 = sub nsw i32 %1, %48
  br label %72

56:                                               ; preds = %49, %46
  %57 = load ptr, ptr %6, align 8
  %.not16 = icmp eq ptr %57, null
  br i1 %.not16, label %70, label %58

58:                                               ; preds = %56
  %59 = zext nneg i32 %1 to i64
  %60 = tail call i32 @fseek(ptr noundef nonnull %57, i64 noundef %59, i32 noundef 0)
  %61 = getelementptr inbounds i8, ptr %0, i64 8
  %62 = load ptr, ptr %61, align 8
  %63 = getelementptr inbounds i8, ptr %0, i64 16
  %64 = load i32, ptr %63, align 8
  %65 = sext i32 %64 to i64
  %66 = load ptr, ptr %6, align 8
  %67 = tail call i64 @fread(ptr noundef %62, i64 noundef 1, i64 noundef %65, ptr noundef %66)
  %68 = trunc i64 %67 to i32
  %69 = getelementptr inbounds i8, ptr %0, i64 24
  store i32 %68, ptr %69, align 8
  store i32 %1, ptr %47, align 4
  br label %72

70:                                               ; preds = %56
  %71 = sub nsw i32 %40, %48
  br label %72

72:                                               ; preds = %58, %70, %54
  %.sink = phi i32 [ 0, %58 ], [ %71, %70 ], [ %55, %54 ]
  %73 = getelementptr inbounds i8, ptr %0, i64 32
  store i32 %.sink, ptr %73, align 8
  ret void
}